; ModuleID = '24/666.c'
source_filename = "24/666.c"
target datalayout = "e-m:e-p270:32:32-p271:32:32-p272:64:64-i64:64-f80:128-n8:16:32:64-S128"
target triple = "x86_64-pc-linux-gnu"

@.str = private unnamed_addr constant [2 x i8] c" \00", align 1
@.str.1 = private unnamed_addr constant [3 x i8] c"%c\00", align 1
@.str.2 = private unnamed_addr constant [2 x i8] c"\0A\00", align 1

; Function Attrs: noinline nounwind uwtable
define dso_local i32 @main() #0 {
  %1 = alloca i32, align 4
  %2 = alloca [900 x i8], align 16
  %3 = alloca i32, align 4
  %4 = alloca [50 x i32], align 16
  %5 = alloca [50 x i32], align 16
  %6 = alloca i32, align 4
  %7 = alloca i32, align 4
  %8 = alloca i32, align 4
  %9 = alloca i32, align 4
  store i32 0, i32* %1, align 4
  %10 = getelementptr inbounds [900 x i8], [900 x i8]* %2, i64 0, i64 0
  %11 = call i32 (i8*, ...) bitcast (i32 (...)* @gets to i32 (i8*, ...)*)(i8* %10)
  %12 = getelementptr inbounds [900 x i8], [900 x i8]* %2, i64 0, i64 0
  %13 = call i8* @strcat(i8* %12, i8* getelementptr inbounds ([2 x i8], [2 x i8]* @.str, i64 0, i64 0)) #4
  store i32 0, i32* %3, align 4
  store i32 0, i32* %6, align 4
  store i32 0, i32* %7, align 4
  br label %14

14:                                               ; preds = %42, %0
  %15 = load i32, i32* %7, align 4
  %16 = sext i32 %15 to i64
  %17 = getelementptr inbounds [900 x i8], [900 x i8]* %2, i64 0, i64 0
  %18 = call i64 @strlen(i8* %17) #5
  %19 = icmp ult i64 %16, %18
  br i1 %19, label %20, label %45

20:                                               ; preds = %14
  %21 = load i32, i32* %7, align 4
  %22 = sext i32 %21 to i64
  %23 = getelementptr inbounds [900 x i8], [900 x i8]* %2, i64 0, i64 %22
  %24 = load i8, i8* %23, align 1
  %25 = sext i8 %24 to i32
  %26 = icmp eq i32 %25, 32
  br i1 %26, label %27, label %41

27:                                               ; preds = %20
  %28 = load i32, i32* %7, align 4
  %29 = load i32, i32* %3, align 4
  %30 = sub nsw i32 %28, %29
  %31 = load i32, i32* %6, align 4
  %32 = sext i32 %31 to i64
  %33 = getelementptr inbounds [50 x i32], [50 x i32]* %4, i64 0, i64 %32
  store i32 %30, i32* %33, align 4
  %34 = load i32, i32* %7, align 4
  %35 = load i32, i32* %6, align 4
  %36 = sext i32 %35 to i64
  %37 = getelementptr inbounds [50 x i32], [50 x i32]* %5, i64 0, i64 %36
  store i32 %34, i32* %37, align 4
  %38 = load i32, i32* %7, align 4
  store i32 %38, i32* %3, align 4
  %39 = load i32, i32* %6, align 4
  %40 = add nsw i32 %39, 1
  store i32 %40, i32* %6, align 4
  br label %41

41:                                               ; preds = %27, %20
  br label %42

42:                                               ; preds = %41
  %43 = load i32, i32* %7, align 4
  %44 = add nsw i32 %43, 1
  store i32 %44, i32* %7, align 4
  br label %14

45:                                               ; preds = %14
  store i32 0, i32* %8, align 4
  store i32 0, i32* %9, align 4
  store i32 0, i32* %7, align 4
  br label %46

46:                                               ; preds = %75, %45
  %47 = load i32, i32* %7, align 4
  %48 = load i32, i32* %6, align 4
  %49 = icmp slt i32 %47, %48
  br i1 %49, label %50, label %78

50:                                               ; preds = %46
  %51 = load i32, i32* %7, align 4
  %52 = sext i32 %51 to i64
  %53 = getelementptr inbounds [50 x i32], [50 x i32]* %4, i64 0, i64 %52
  %54 = load i32, i32* %53, align 4
  %55 = load i32, i32* %8, align 4
  %56 = sext i32 %55 to i64
  %57 = getelementptr inbounds [50 x i32], [50 x i32]* %4, i64 0, i64 %56
  %58 = load i32, i32* %57, align 4
  %59 = icmp sle i32 %54, %58
  br i1 %59, label %60, label %62

60:                                               ; preds = %50
  %61 = load i32, i32* %7, align 4
  store i32 %61, i32* %8, align 4
  br label %62

62:                                               ; preds = %60, %50
  %63 = load i32, i32* %7, align 4
  %64 = sext i32 %63 to i64
  %65 = getelementptr inbounds [50 x i32], [50 x i32]* %4, i64 0, i64 %64
  %66 = load i32, i32* %65, align 4
  %67 = load i32, i32* %9, align 4
  %68 = sext i32 %67 to i64
  %69 = getelementptr inbounds [50 x i32], [50 x i32]* %4, i64 0, i64 %68
  %70 = load i32, i32* %69, align 4
  %71 = icmp sge i32 %66, %70
  br i1 %71, label %72, label %74

72:                                               ; preds = %62
  %73 = load i32, i32* %7, align 4
  store i32 %73, i32* %9, align 4
  br label %74

74:                                               ; preds = %72, %62
  br label %75

75:                                               ; preds = %74
  %76 = load i32, i32* %7, align 4
  %77 = add nsw i32 %76, 1
  store i32 %77, i32* %7, align 4
  br label %46

78:                                               ; preds = %46
  %79 = load i32, i32* %9, align 4
  %80 = icmp eq i32 %79, 0
  br i1 %80, label %81, label %100

81:                                               ; preds = %78
  store i32 0, i32* %7, align 4
  br label %82

82:                                               ; preds = %96, %81
  %83 = load i32, i32* %7, align 4
  %84 = load i32, i32* %9, align 4
  %85 = sext i32 %84 to i64
  %86 = getelementptr inbounds [50 x i32], [50 x i32]* %5, i64 0, i64 %85
  %87 = load i32, i32* %86, align 4
  %88 = icmp slt i32 %83, %87
  br i1 %88, label %89, label %99

89:                                               ; preds = %82
  %90 = load i32, i32* %7, align 4
  %91 = sext i32 %90 to i64
  %92 = getelementptr inbounds [900 x i8], [900 x i8]* %2, i64 0, i64 %91
  %93 = load i8, i8* %92, align 1
  %94 = sext i8 %93 to i32
  %95 = call i32 (i8*, ...) @printf(i8* getelementptr inbounds ([3 x i8], [3 x i8]* @.str.1, i64 0, i64 0), i32 %94)
  br label %96

96:                                               ; preds = %89
  %97 = load i32, i32* %7, align 4
  %98 = add nsw i32 %97, 1
  store i32 %98, i32* %7, align 4
  br label %82

99:                                               ; preds = %82
  br label %129

100:                                              ; preds = %78
  %101 = load i32, i32* %9, align 4
  %102 = sext i32 %101 to i64
  %103 = getelementptr inbounds [50 x i32], [50 x i32]* %5, i64 0, i64 %102
  %104 = load i32, i32* %103, align 4
  %105 = load i32, i32* %9, align 4
  %106 = sext i32 %105 to i64
  %107 = getelementptr inbounds [50 x i32], [50 x i32]* %4, i64 0, i64 %106
  %108 = load i32, i32* %107, align 4
  %109 = sub nsw i32 %104, %108
  %110 = add nsw i32 %109, 1
  store i32 %110, i32* %7, align 4
  br label %111

111:                                              ; preds = %125, %100
  %112 = load i32, i32* %7, align 4
  %113 = load i32, i32* %9, align 4
  %114 = sext i32 %113 to i64
  %115 = getelementptr inbounds [50 x i32], [50 x i32]* %5, i64 0, i64 %114
  %116 = load i32, i32* %115, align 4
  %117 = icmp slt i32 %112, %116
  br i1 %117, label %118, label %128

118:                                              ; preds = %111
  %119 = load i32, i32* %7, align 4
  %120 = sext i32 %119 to i64
  %121 = getelementptr inbounds [900 x i8], [900 x i8]* %2, i64 0, i64 %120
  %122 = load i8, i8* %121, align 1
  %123 = sext i8 %122 to i32
  %124 = call i32 (i8*, ...) @printf(i8* getelementptr inbounds ([3 x i8], [3 x i8]* @.str.1, i64 0, i64 0), i32 %123)
  br label %125

125:                                              ; preds = %118
  %126 = load i32, i32* %7, align 4
  %127 = add nsw i32 %126, 1
  store i32 %127, i32* %7, align 4
  br label %111

128:                                              ; preds = %111
  br label %129

129:                                              ; preds = %128, %99
  %130 = call i32 (i8*, ...) @printf(i8* getelementptr inbounds ([2 x i8], [2 x i8]* @.str.2, i64 0, i64 0))
  %131 = load i32, i32* %8, align 4
  %132 = icmp eq i32 %131, 0
  br i1 %132, label %133, label %152

133:                                              ; preds = %129
  store i32 0, i32* %7, align 4
  br label %134

134:                                              ; preds = %148, %133
  %135 = load i32, i32* %7, align 4
  %136 = load i32, i32* %8, align 4
  %137 = sext i32 %136 to i64
  %138 = getelementptr inbounds [50 x i32], [50 x i32]* %5, i64 0, i64 %137
  %139 = load i32, i32* %138, align 4
  %140 = icmp slt i32 %135, %139
  br i1 %140, label %141, label %151

141:                                              ; preds = %134
  %142 = load i32, i32* %7, align 4
  %143 = sext i32 %142 to i64
  %144 = getelementptr inbounds [900 x i8], [900 x i8]* %2, i64 0, i64 %143
  %145 = load i8, i8* %144, align 1
  %146 = sext i8 %145 to i32
  %147 = call i32 (i8*, ...) @printf(i8* getelementptr inbounds ([3 x i8], [3 x i8]* @.str.1, i64 0, i64 0), i32 %146)
  br label %148

148:                                              ; preds = %141
  %149 = load i32, i32* %7, align 4
  %150 = add nsw i32 %149, 1
  store i32 %150, i32* %7, align 4
  br label %134

151:                                              ; preds = %134
  br label %181

152:                                              ; preds = %129
  %153 = load i32, i32* %8, align 4
  %154 = sext i32 %153 to i64
  %155 = getelementptr inbounds [50 x i32], [50 x i32]* %5, i64 0, i64 %154
  %156 = load i32, i32* %155, align 4
  %157 = load i32, i32* %8, align 4
  %158 = sext i32 %157 to i64
  %159 = getelementptr inbounds [50 x i32], [50 x i32]* %4, i64 0, i64 %158
  %160 = load i32, i32* %159, align 4
  %161 = sub nsw i32 %156, %160
  %162 = add nsw i32 %161, 1
  store i32 %162, i32* %7, align 4
  br label %163

163:                                              ; preds = %177, %152
  %164 = load i32, i32* %7, align 4
  %165 = load i32, i32* %8, align 4
  %166 = sext i32 %165 to i64
  %167 = getelementptr inbounds [50 x i32], [50 x i32]* %5, i64 0, i64 %166
  %168 = load i32, i32* %167, align 4
  %169 = icmp slt i32 %164, %168
  br i1 %169, label %170, label %180

170:                                              ; preds = %163
  %171 = load i32, i32* %7, align 4
  %172 = sext i32 %171 to i64
  %173 = getelementptr inbounds [900 x i8], [900 x i8]* %2, i64 0, i64 %172
  %174 = load i8, i8* %173, align 1
  %175 = sext i8 %174 to i32
  %176 = call i32 (i8*, ...) @printf(i8* getelementptr inbounds ([3 x i8], [3 x i8]* @.str.1, i64 0, i64 0), i32 %175)
  br label %177

177:                                              ; preds = %170
  %178 = load i32, i32* %7, align 4
  %179 = add nsw i32 %178, 1
  store i32 %179, i32* %7, align 4
  br label %163

180:                                              ; preds = %163
  br label %181

181:                                              ; preds = %180, %151
  ret i32 0
}

declare dso_local i32 @gets(...) #1

; Function Attrs: nounwind
declare dso_local i8* @strcat(i8*, i8*) #2

; Function Attrs: nounwind readonly
declare dso_local i64 @strlen(i8*) #3

declare dso_local i32 @printf(i8*, ...) #1


!llvm.module.flags = !{!0}
!llvm.ident = !{!1}

!0 = !{i32 1, !"wchar_size", i32 4}
!1 = !{!"clang version 10.0.0-4ubuntu1 "}
